Certificate:
    Data:
        Version: 3 (0x2)
        Serial Number: 2 (0x2)
        Signature Algorithm: sha256WithRSAEncryption
        Issuer: C=IN, ST=MH, L=CITY, O=ORG, OU=UNIT, CN=CA/emailAddress=cacert@example.com
        Validity
            Not Before: Jun 15 05:46:54 2022 GMT
            Not After : Jun 12 05:46:54 2032 GMT
        Subject: C=IN, ST=MH, L=CITY, O=ORG1, OU=UNIT1, CN=CLIENT/emailAddress=client@example.com
        Subject Public Key Info:
            Public Key Algorithm: rsaEncryption
                RSA Public-Key: (2048 bit)
                Modulus:
                    00:d2:d2:09:ae:fc:c3:22:d6:65:cb:7c:dd:92:d2:
                    f4:2d:04:da:6d:08:b4:d9:1c:04:09:7a:f4:72:c2:
                    b0:a9:af:53:d8:8c:38:9c:09:e9:7c:cb:27:1d:7e:
                    d8:56:95:30:28:27:cf:ab:df:43:ce:28:b0:68:79:
                    93:b5:e8:ad:37:dc:bc:3e:62:e0:dd:42:e1:c9:1f:
                    ba:44:b7:d8:06:6d:0c:86:02:2e:24:13:ae:54:71:
                    fc:70:15:7e:49:cd:f6:9c:fc:cf:f9:7f:df:a8:56:
                    89:92:21:9c:cb:56:68:d0:2f:65:42:5c:48:a2:f1:
                    9e:94:f6:f4:5a:2c:91:ad:84:42:9a:9f:a4:7b:8f:
                    46:74:b5:92:e0:e7:c0:fe:04:53:95:02:b0:21:c3:
                    ed:ac:0e:15:4f:c7:f3:a3:f9:9a:ea:3d:f9:66:a2:
                    1b:61:fe:8c:94:99:8e:79:01:a7:ab:21:90:7e:30:
                    61:ef:d3:b8:be:b0:14:38:ed:d9:53:eb:f7:d4:00:
                    f0:a1:4c:31:b7:69:02:a2:df:a2:c2:6e:f9:6c:19:
                    1c:1f:ba:c7:1e:84:c7:3d:ea:c6:ba:d3:c9:fd:9a:
                    a0:f6:26:50:b7:09:9b:de:e0:7a:17:61:a4:99:f8:
                    ad:30:35:87:24:21:f1:5b:2d:bd:03:86:81:5d:ed:
                    f7:69
                Exponent: 65537 (0x10001)
        X509v3 extensions:
            X509v3 Basic Constraints:
                CA:FALSE
            Netscape Comment:
                OpenSSL Generated Certificate
            X509v3 Subject Key Identifier:
                15:55:BB:D8:0B:BF:93:51:14:91:AC:06:38:AC:17:39:54:44:64:FD
            X509v3 Authority Key Identifier:
                keyid:7B:90:47:BD:5F:E8:A5:38:2A:DB:C5:7F:E0:D0:B6:17:25:B1:1B:6C

    Signature Algorithm: sha256WithRSAEncryption
         a4:46:c2:13:21:c7:10:39:b7:c3:95:f3:81:e3:e9:2e:7c:5d:
         bf:19:d2:ed:c1:7d:ce:11:14:c4:7d:38:72:55:ba:2a:c4:24:
         f5:1e:1a:6a:0b:37:57:d6:22:cd:31:5b:33:1d:7e:27:b6:b3:
         d9:c0:b5:30:4b:18:0e:89:d5:df:cf:e1:5c:2f:23:f0:1d:0a:
         1b:3e:88:03:e3:0a:fc:c2:f4:f8:3a:a6:17:42:ea:59:6b:77:
         dc:2a:64:c0:07:0f:94:61:4c:59:84:34:75:8e:2b:97:63:ab:
         11:b6:16:6e:83:fd:e7:ea:80:bd:23:58:b0:10:7f:d1:5d:f3:
         af:f2:3d:60:14:6d:d0:51:8c:70:2d:5a:cf:75:f0:82:81:64:
         32:75:c7:b6:3d:ec:82:82:dd:73:1b:8a:a2:fc:a7:89:69:5b:
         bc:71:94:2b:5c:95:b3:c4:3e:e0:e3:b4:9e:67:8f:9f:b9:d1:
         dd:68:32:c1:33:2b:9b:e9:95:a7:54:6f:96:f3:f1:e2:b7:6a:
         01:d9:48:44:d5:1c:3d:40:f1:98:41:1d:88:8e:96:c9:81:c6:
         16:96:51:8a:3e:dc:59:ea:a0:9b:91:0a:d2:b2:e9:45:fb:7c:
         81:ae:9a:82:86:20:d9:9f:af:94:a9:97:c3:25:1d:2e:63:cf:
         10:53:7c:fb
-----BEGIN CERTIFICATE-----
MIID6DCCAtCgAwIBAgIBAjANBgkqhkiG9w0BAQsFADB2MQswCQYDVQQGEwJJTjEL
MAkGA1UECAwCTUgxDTALBgNVBAcMBENJVFkxDDAKBgNVBAoMA09SRzENMAsGA1UE
CwwEVU5JVDELMAkGA1UEAwwCQ0ExITAfBgkqhkiG9w0BCQEWEmNhY2VydEBleGFt
cGxlLmNvbTAeFw0yMjA2MTUwNTQ2NTRaFw0zMjA2MTIwNTQ2NTRaMHwxCzAJBgNV
BAYTAklOMQswCQYDVQQIDAJNSDENMAsGA1UEBwwEQ0lUWTENMAsGA1UECgwET1JH
MTEOMAwGA1UECwwFVU5JVDExDzANBgNVBAMMBkNMSUVOVDEhMB8GCSqGSIb3DQEJ
ARYSY2xpZW50QGV4YW1wbGUuY29tMIIBIjANBgkqhkiG9w0BAQEFAAOCAQ8AMIIB
CgKCAQEA0tIJrvzDItZly3zdktL0LQTabQi02RwECXr0csKwqa9T2Iw4nAnpfMsn
HX7YVpUwKCfPq99DziiwaHmTteitN9y8PmLg3ULhyR+6RLfYBm0MhgIuJBOuVHH8
cBV+Sc32nPzP+X/fqFaJkiGcy1Zo0C9lQlxIovGelPb0WiyRrYRCmp+ke49GdLWS
4OfA/gRTlQKwIcPtrA4VT8fzo/ma6j35ZqIbYf6MlJmOeQGnqyGQfjBh79O4vrAU
OO3ZU+v31ADwoUwxt2kCot+iwm75bBkcH7rHHoTHPerGutPJ/Zqg9iZQtwmb3uB6
F2GkmfitMDWHJCHxWy29A4aBXe33aQIDAQABo3sweTAJBgNVHRMEAjAAMCwGCWCG
SAGG+EIBDQQfFh1PcGVuU1NMIEdlbmVyYXRlZCBDZXJ0aWZpY2F0ZTAdBgNVHQ4E
FgQUFVW72Au/k1EUkawGOKwXOVREZP0wHwYDVR0jBBgwFoAUe5BHvV/opTgq28V/
4NC2FyWxG2wwDQYJKoZIhvcNAQELBQADggEBAKRGwhMhxxA5t8OV84Hj6S58Xb8Z
0u3Bfc4RFMR9OHJVuirEJPUeGmoLN1fWIs0xWzMdfie2s9nAtTBLGA6J1d/P4Vwv
I/AdChs+iAPjCvzC9Pg6phdC6llrd9wqZMAHD5RhTFmENHWOK5djqxG2Fm6D/efq
gL0jWLAQf9Fd86/yPWAUbdBRjHAtWs918IKBZDJ1x7Y97IKC3XMbiqL8p4lpW7xx
lCtclbPEPuDjtJ5nj5+50d1oMsEzK5vpladUb5bz8eK3agHZSETVHD1A8ZhBHYiO
lsmBxhaWUYo+3FnqoJuRCtKy6UX7fIGumoKGINmfr5Spl8MlHS5jzxBTfPs=
-----END CERTIFICATE-----
