Certificate:
    Data:
        Version: 3 (0x2)
        Serial Number:
            48:45:01:97:68:3b:df:6b:54:f1:f0:be:c0:cd:6b:42:bd:6d:4d:3b
        Signature Algorithm: sha256WithRSAEncryption
        Issuer: C=IN, L=PU, O=ORG, CN=Root CA
        Validity
            Not Before: Apr 14 09:03:20 2022 GMT
            Not After : Apr  9 09:03:20 2042 GMT
        Subject: C=IN, O=ORG, CN=client-rsa2048-rsa2048
        Subject Public Key Info:
            Public Key Algorithm: rsaEncryption
                RSA Public-Key: (2048 bit)
                Modulus:
                    00:a7:2e:97:ab:26:d9:7d:c9:59:96:dd:7c:e0:e8:
                    5b:bc:40:46:67:52:4a:b0:50:88:f5:be:cb:47:88:
                    ea:07:12:88:47:32:1d:01:d4:52:af:e8:bb:ed:5b:
                    ab:58:b0:b7:a0:ca:9e:f5:18:a3:d2:28:bf:81:05:
                    17:8f:b1:8b:97:93:6f:4b:49:af:8c:0e:2d:b7:0e:
                    0a:e9:a3:65:0e:38:32:7c:c4:36:df:0c:68:cc:e4:
                    26:61:bc:7c:c6:86:f5:c5:a5:71:cd:91:8d:48:80:
                    0d:c2:50:e2:ab:6d:ee:cb:f0:2a:4b:9f:2b:74:87:
                    72:a0:2e:73:83:ba:f6:37:ad:04:f0:65:24:6a:f7:
                    d4:07:b6:7e:37:31:31:df:e9:16:42:9f:1c:7b:74:
                    62:de:52:fe:5c:11:df:9c:3e:5a:d7:63:bf:a9:65:
                    66:b0:86:1c:b1:70:09:d9:be:b2:a2:91:c5:f5:fc:
                    44:bd:88:6e:a6:34:47:34:8d:47:72:0a:64:0a:7f:
                    ec:f6:12:c9:00:d8:84:63:02:f5:81:98:e3:d2:44:
                    74:68:17:8c:85:81:3b:48:5b:d6:b1:38:a5:11:14:
                    7e:9a:c4:b0:3a:9d:05:23:76:e0:7f:c1:59:39:99:
                    55:22:45:89:21:9d:85:f1:13:91:1b:41:00:3a:33:
                    a6:3b
                Exponent: 65537 (0x10001)
        X509v3 extensions:
            X509v3 Basic Constraints:
                CA:FALSE
            X509v3 Subject Key Identifier:
                DB:C0:3A:31:1C:22:7E:F8:11:CD:A6:3B:59:DF:F7:E0:1F:F6:C5:7D
            X509v3 Authority Key Identifier:
                keyid:29:7C:BF:2A:8F:34:DB:BD:12:73:84:15:1E:93:BD:BB:DD:FD:C8:AF

            X509v3 Subject Alternative Name:
                email:client-rsa2048-rsa2048@w1.fi
            X509v3 Extended Key Usage:
                TLS Web Client Authentication
            X509v3 Key Usage:
                Digital Signature, Key Encipherment
    Signature Algorithm: sha256WithRSAEncryption
         1b:98:7c:9f:08:70:3b:19:de:af:46:ac:35:c0:96:93:4f:6d:
         20:2d:0a:e1:30:db:c7:a4:a8:83:57:98:17:9d:66:5d:06:64:
         b4:44:c3:c2:cf:14:6e:0b:8d:16:1a:98:d0:e3:e2:b3:7a:4d:
         33:c0:9c:3a:4a:46:d1:26:5e:7b:84:eb:77:a6:a8:c2:bf:87:
         9c:6e:55:b7:df:65:9a:42:51:ea:12:21:2b:0d:68:65:fa:fa:
         90:6b:02:07:f5:2f:f6:90:9c:65:50:9d:d7:59:85:34:9f:4f:
         e2:99:76:76:d2:a1:a9:9e:c9:e6:50:bf:ee:93:35:6a:0b:09:
         00:de:ea:18:6f:0e:b7:5c:07:07:3f:43:3d:eb:d5:df:2d:cd:
         3c:db:6a:e4:8f:86:69:7b:44:be:c5:17:04:bd:23:ab:91:50:
         ac:2e:9c:73:8c:59:5d:ba:29:72:1f:06:4b:31:2d:19:d7:69:
         10:ae:d0:a6:5f:14:c0:ac:2d:ff:1f:74:13:22:b3:60:93:59:
         f5:bf:0a:f7:28:7c:28:0d:6e:87:ed:87:3e:1d:05:36:19:fe:
         46:f2:e1:65:46:e6:8c:d2:6f:04:47:57:e4:c1:78:71:78:35:
         63:64:05:59:ae:ef:dd:dc:5d:76:b0:6f:50:e9:d7:7b:87:ed:
         0f:21:78:eb
-----BEGIN CERTIFICATE-----
MIIDnjCCAoagAwIBAgIUSEUBl2g732tU8fC+wM1rQr1tTTswDQYJKoZIhvcNAQEL
BQAwOjELMAkGA1UEBhMCSU4xCzAJBgNVBAcMAlBVMQwwCgYDVQQKDANPUkcxEDAO
BgNVBAMMB1Jvb3QgQ0EwHhcNMjIwNDE0MDkwMzIwWhcNNDIwNDA5MDkwMzIwWjA8
MQswCQYDVQQGEwJJTjEMMAoGA1UECgwDT1JHMR8wHQYDVQQDDBZjbGllbnQtcnNh
MjA0OC1yc2EyMDQ4MIIBIjANBgkqhkiG9w0BAQEFAAOCAQ8AMIIBCgKCAQEApy6X
qybZfclZlt184OhbvEBGZ1JKsFCI9b7LR4jqBxKIRzIdAdRSr+i77VurWLC3oMqe
9Rij0ii/gQUXj7GLl5NvS0mvjA4ttw4K6aNlDjgyfMQ23wxozOQmYbx8xob1xaVx
zZGNSIANwlDiq23uy/AqS58rdIdyoC5zg7r2N60E8GUkavfUB7Z+NzEx3+kWQp8c
e3Ri3lL+XBHfnD5a12O/qWVmsIYcsXAJ2b6yopHF9fxEvYhupjRHNI1HcgpkCn/s
9hLJANiEYwL1gZjj0kR0aBeMhYE7SFvWsTilERR+msSwOp0FI3bgf8FZOZlVIkWJ
IZ2F8RORG0EAOjOmOwIDAQABo4GZMIGWMAkGA1UdEwQCMAAwHQYDVR0OBBYEFNvA
OjEcIn74Ec2mO1nf9+Af9sV9MB8GA1UdIwQYMBaAFCl8vyqPNNu9EnOEFR6Tvbvd
/civMCcGA1UdEQQgMB6BHGNsaWVudC1yc2EyMDQ4LXJzYTIwNDhAdzEuZmkwEwYD
VR0lBAwwCgYIKwYBBQUHAwIwCwYDVR0PBAQDAgWgMA0GCSqGSIb3DQEBCwUAA4IB
AQAbmHyfCHA7Gd6vRqw1wJaTT20gLQrhMNvHpKiDV5gXnWZdBmS0RMPCzxRuC40W
GpjQ4+Kzek0zwJw6SkbRJl57hOt3pqjCv4ecblW332WaQlHqEiErDWhl+vqQawIH
9S/2kJxlUJ3XWYU0n0/imXZ20qGpnsnmUL/ukzVqCwkA3uoYbw63XAcHP0M969Xf
Lc0822rkj4Zpe0S+xRcEvSOrkVCsLpxzjFlduilyHwZLMS0Z12kQrtCmXxTArC3/
H3QTIrNgk1n1vwr3KHwoDW6H7Yc+HQU2Gf5G8uFlRuaM0m8ER1fkwXhxeDVjZAVZ
ru/d3F12sG9Q6dd7h+0PIXjr
-----END CERTIFICATE-----
