Certificate:
    Data:
        Version: 3 (0x2)
        Serial Number: 47 (0x2f)
    Signature Algorithm: sha1WithRSAEncryption
        Issuer: C=FR, ST=Radius, L=Somewhere, O=Example Inc./emailAddress=admin@example.com, CN=Example Certificate Authority
        Validity
            Not Before: Jun  7 08:06:49 2017 GMT
            Not After : Jun  5 08:06:49 2027 GMT
        Subject: C=FR, ST=Radius, O=Example Inc., CN=Example Server Certificate/emailAddress=admin@example.com
        Subject Public Key Info:
            Public Key Algorithm: rsaEncryption
                Public-Key: (2048 bit)
                Modulus:
                    00:c9:d8:e2:e0:75:91:83:87:d8:c8:80:c6:20:4d:
                    e9:14:24:30:98:33:53:fa:56:0e:ec:9a:43:7f:87:
                    a9:22:94:26:06:c7:ac:b5:d9:ec:55:06:81:b7:0d:
                    c9:24:51:49:fa:47:fb:4b:4e:fc:ed:75:8a:e1:28:
                    32:bc:c5:e0:4c:45:c4:58:60:15:67:1e:6b:40:19:
                    3f:f0:ab:92:61:92:2d:71:10:2e:f2:eb:bc:81:2f:
                    5a:3b:74:ca:5f:fd:e0:ee:d1:d9:07:6a:6c:20:c0:
                    07:88:b4:8b:0f:ad:1e:c9:4f:7c:11:98:37:89:15:
                    de:24:b1:11:1a:7c:97:4a:cf:f3:c8:cb:79:9e:9c:
                    c3:71:da:a6:94:97:f5:95:fd:61:06:44:e2:3f:12:
                    43:0b:1d:33:48:91:d2:ce:4f:97:a1:ed:6a:30:c7:
                    5d:98:b5:6e:0a:b7:4f:d9:03:ec:80:76:09:b0:40:
                    a1:a1:af:ab:2a:59:c4:0f:56:22:bc:be:14:be:18:
                    df:10:7d:5d:22:bf:e5:04:77:7a:75:6b:3e:eb:6d:
                    20:a1:a7:60:d4:f1:87:9d:9f:60:b9:d3:db:2c:25:
                    f4:91:4a:f1:d2:40:e5:a1:10:88:a0:41:5a:98:40:
                    ca:15:d7:e3:e6:3e:c0:6a:d5:46:b2:b4:90:b4:ae:
                    3b:e3
                Exponent: 65537 (0x10001)
        X509v3 extensions:
            X509v3 Extended Key Usage:
                TLS Web Server Authentication
            X509v3 CRL Distribution Points:

                Full Name:
                  URI:http://www.example.com/example_ca.crl

    Signature Algorithm: sha1WithRSAEncryption
         a4:25:21:51:0b:22:6c:63:8d:a9:c1:4f:04:33:69:79:34:f0:
         36:dd:8f:6a:27:5f:07:a2:1d:ef:8b:f0:96:e6:e7:a3:b8:3b:
         85:5e:3f:26:43:8a:8e:95:58:9c:a6:db:9c:51:bf:ea:53:16:
         3e:c1:a8:11:1a:c6:cf:0e:a1:17:18:64:d2:05:f1:c0:9c:a6:
         2b:16:c4:29:54:03:d2:17:bd:15:74:d6:ad:8a:8f:2d:cc:27:
         3b:88:88:f2:ea:d0:a2:cb:e9:42:57:df:26:9f:8a:a2:02:2f:
         35:b6:19:1d:26:43:44:af:12:4b:bc:b9:84:50:02:fd:1d:fa:
         50:e8
-----BEGIN CERTIFICATE-----
MIIDWTCCAsKgAwIBAgIBLzANBgkqhkiG9w0BAQUFADCBkzELMAkGA1UEBhMCRlIx
DzANBgNVBAgMBlJhZGl1czESMBAGA1UEBwwJU29tZXdoZXJlMRUwEwYDVQQKDAxF
eGFtcGxlIEluYy4xIDAeBgkqhkiG9w0BCQEWEWFkbWluQGV4YW1wbGUuY29tMSYw
JAYDVQQDDB1FeGFtcGxlIENlcnRpZmljYXRlIEF1dGhvcml0eTAeFw0xNzA2MDcw
ODA2NDlaFw0yNzA2MDUwODA2NDlaMHwxCzAJBgNVBAYTAkZSMQ8wDQYDVQQIDAZS
YWRpdXMxFTATBgNVBAoMDEV4YW1wbGUgSW5jLjEjMCEGA1UEAwwaRXhhbXBsZSBT
ZXJ2ZXIgQ2VydGlmaWNhdGUxIDAeBgkqhkiG9w0BCQEWEWFkbWluQGV4YW1wbGUu
Y29tMIIBIjANBgkqhkiG9w0BAQEFAAOCAQ8AMIIBCgKCAQEAydji4HWRg4fYyIDG
IE3pFCQwmDNT+lYO7JpDf4epIpQmBsestdnsVQaBtw3JJFFJ+kf7S0787XWK4Sgy
vMXgTEXEWGAVZx5rQBk/8KuSYZItcRAu8uu8gS9aO3TKX/3g7tHZB2psIMAHiLSL
D60eyU98EZg3iRXeJLERGnyXSs/zyMt5npzDcdqmlJf1lf1hBkTiPxJDCx0zSJHS
zk+Xoe1qMMddmLVuCrdP2QPsgHYJsEChoa+rKlnED1YivL4UvhjfEH1dIr/lBHd6
dWs+620goadg1PGHnZ9gudPbLCX0kUrx0kDloRCIoEFamEDKFdfj5j7AatVGsrSQ
tK474wIDAQABo08wTTATBgNVHSUEDDAKBggrBgEFBQcDATA2BgNVHR8ELzAtMCug
KaAnhiVodHRwOi8vd3d3LmV4YW1wbGUuY29tL2V4YW1wbGVfY2EuY3JsMA0GCSqG
SIb3DQEBBQUAA4GBAKQlIVELImxjjanBTwQzaXk08Dbdj2onXweiHe+L8Jbm56O4
O4VePyZDio6VWJym25xRv+pTFj7BqBEaxs8OoRcYZNIF8cCcpisWxClUA9IXvRV0
1q2Kjy3MJzuIiPLq0KLL6UJX3yafiqICLzW2GR0mQ0SvEku8uYRQAv0d+lDo
-----END CERTIFICATE-----
