Certificate:
    Data:
        Version: 3 (0x2)
        Serial Number: 1 (0x1)
        Signature Algorithm: sha256WithRSAEncryption
        Issuer: C=IN, ST=STATE, L=CITY, O=EXAMPEL CA ORG, OU=unit CA, CN=Cert Auth/emailAddress=admin@example.com
        Validity
            Not Before: Jan 27 11:25:19 2022 GMT
            Not After : Jan 27 11:25:19 2023 GMT
        Subject: C=IN, ST=STATE, L=CITY, O=EXAMPEL CA ORG, OU=unit Server, CN=Example Server/emailAddress=admin@example.com
        Subject Public Key Info:
            Public Key Algorithm: rsaEncryption
                RSA Public-Key: (2048 bit)
                Modulus:
                    00:b4:cb:f6:1d:10:2f:4a:c3:1e:a7:38:6d:79:02:
                    f2:af:0a:da:cd:34:cf:5c:3a:8d:d6:1b:9f:f1:17:
                    ed:9e:5d:7c:db:b5:a3:d1:7d:79:97:1e:f6:09:22:
                    c4:f4:c7:67:76:94:79:e6:d7:3a:3e:16:40:ef:60:
                    01:4f:41:93:1b:3e:d1:cf:7a:62:51:da:d5:f0:ee:
                    f1:92:88:7d:ec:4f:c8:db:60:7d:4c:07:c9:9f:35:
                    85:b8:97:54:f2:78:78:9f:a1:c1:1f:4f:a2:ea:06:
                    7c:59:d9:be:51:cb:13:0c:ed:32:82:f0:a1:9f:bd:
                    86:03:c4:9d:4a:dd:b8:48:07:0b:ce:84:94:92:8c:
                    d1:cd:7d:b2:b5:d7:fd:81:4c:68:1f:bf:92:1b:ee:
                    22:b4:0d:4a:ac:b0:fc:b1:83:ae:25:2b:55:5a:c0:
                    36:76:46:1c:74:0f:2e:55:93:4e:53:6a:d9:ff:f2:
                    f9:3d:92:f7:19:cd:4e:a7:8d:28:be:f3:b5:b7:20:
                    19:74:38:4d:e1:96:26:f7:7f:69:10:a3:50:ab:86:
                    be:7d:76:d8:46:0f:25:e8:6b:16:65:e0:c8:cb:9c:
                    b8:4d:21:6d:5b:76:d0:75:0d:82:df:42:33:0b:05:
                    69:0a:c1:70:98:27:7b:fb:05:eb:41:13:c4:dc:a8:
                    f1:05
                Exponent: 65537 (0x10001)
        X509v3 extensions:
            X509v3 Basic Constraints:
                CA:FALSE
            Netscape Comment:
                OpenSSL Generated Certificate
            X509v3 Subject Key Identifier:
                E8:B5:B7:60:BA:CD:9C:F2:7A:7D:20:01:48:DC:03:C5:F2:F7:1E:80
            X509v3 Authority Key Identifier:
                keyid:76:B2:FB:9A:70:28:B6:2C:92:26:99:2F:D3:BE:95:F4:52:3C:DE:76

    Signature Algorithm: sha256WithRSAEncryption
         c2:59:a0:58:92:87:7a:56:85:9e:1f:93:26:44:5a:ca:47:0f:
         e6:b6:a2:40:37:03:46:8e:e3:dc:48:e6:51:21:38:f4:45:db:
         00:17:de:0d:9f:cc:1c:cd:42:c0:41:fe:fb:e9:bb:65:75:23:
         f4:95:0a:dd:13:8e:90:85:e4:09:36:7b:0f:d5:62:f5:62:67:
         ff:0e:2f:43:cf:4f:0c:c1:61:85:84:02:6e:41:d6:d8:3f:ce:
         33:b0:fc:b8:d7:ab:27:f2:cb:b9:ab:23:7a:62:d1:1b:41:25:
         51:7a:d6:52:43:67:7f:64:89:56:fa:5c:10:94:29:f0:5d:58:
         28:89:41:0d:10:13:2a:c2:3b:84:b5:43:aa:b5:f4:bc:17:0b:
         4e:25:77:fb:0c:97:f0:ec:a0:52:31:26:96:61:e8:a5:46:99:
         75:4f:eb:ab:f9:93:12:87:0b:44:8e:6f:c7:2b:0b:51:4e:b3:
         ba:9f:5d:9e:40:4f:81:3a:e3:b3:d4:12:63:60:62:90:42:76:
         7e:27:d6:da:b3:ae:7b:bc:85:a2:bf:6c:d5:04:46:a1:05:2b:
         a4:78:58:29:44:44:08:7b:7b:62:7b:8c:8c:58:8d:2e:80:ae:
         f5:6c:5b:41:af:58:b9:52:f6:d2:2d:89:a6:64:6c:38:57:eb:
         b1:e2:da:f9
-----BEGIN CERTIFICATE-----
MIIEGzCCAwOgAwIBAgIBATANBgkqhkiG9w0BAQsFADCBjTELMAkGA1UEBhMCSU4x
DjAMBgNVBAgMBVNUQVRFMQ0wCwYDVQQHDARDSVRZMRcwFQYDVQQKDA5FWEFNUEVM
IENBIE9SRzEQMA4GA1UECwwHdW5pdCBDQTESMBAGA1UEAwwJQ2VydCBBdXRoMSAw
HgYJKoZIhvcNAQkBFhFhZG1pbkBleGFtcGxlLmNvbTAeFw0yMjAxMjcxMTI1MTla
Fw0yMzAxMjcxMTI1MTlaMIGWMQswCQYDVQQGEwJJTjEOMAwGA1UECAwFU1RBVEUx
DTALBgNVBAcMBENJVFkxFzAVBgNVBAoMDkVYQU1QRUwgQ0EgT1JHMRQwEgYDVQQL
DAt1bml0IFNlcnZlcjEXMBUGA1UEAwwORXhhbXBsZSBTZXJ2ZXIxIDAeBgkqhkiG
9w0BCQEWEWFkbWluQGV4YW1wbGUuY29tMIIBIjANBgkqhkiG9w0BAQEFAAOCAQ8A
MIIBCgKCAQEAtMv2HRAvSsMepzhteQLyrwrazTTPXDqN1huf8Rftnl1827Wj0X15
lx72CSLE9MdndpR55tc6PhZA72ABT0GTGz7Rz3piUdrV8O7xkoh97E/I22B9TAfJ
nzWFuJdU8nh4n6HBH0+i6gZ8Wdm+UcsTDO0ygvChn72GA8SdSt24SAcLzoSUkozR
zX2ytdf9gUxoH7+SG+4itA1KrLD8sYOuJStVWsA2dkYcdA8uVZNOU2rZ//L5PZL3
Gc1Op40ovvO1tyAZdDhN4ZYm939pEKNQq4a+fXbYRg8l6GsWZeDIy5y4TSFtW3bQ
dQ2C30IzCwVpCsFwmCd7+wXrQRPE3KjxBQIDAQABo3sweTAJBgNVHRMEAjAAMCwG
CWCGSAGG+EIBDQQfFh1PcGVuU1NMIEdlbmVyYXRlZCBDZXJ0aWZpY2F0ZTAdBgNV
HQ4EFgQU6LW3YLrNnPJ6fSABSNwDxfL3HoAwHwYDVR0jBBgwFoAUdrL7mnAotiyS
Jpkv076V9FI83nYwDQYJKoZIhvcNAQELBQADggEBAMJZoFiSh3pWhZ4fkyZEWspH
D+a2okA3A0aO49xI5lEhOPRF2wAX3g2fzBzNQsBB/vvpu2V1I/SVCt0TjpCF5Ak2
ew/VYvViZ/8OL0PPTwzBYYWEAm5B1tg/zjOw/LjXqyfyy7mrI3pi0RtBJVF61lJD
Z39kiVb6XBCUKfBdWCiJQQ0QEyrCO4S1Q6q19LwXC04ld/sMl/DsoFIxJpZh6KVG
mXVP66v5kxKHC0SOb8crC1FOs7qfXZ5AT4E647PUEmNgYpBCdn4n1tqzrnu8haK/
bNUERqEFK6R4WClERAh7e2J7jIxYjS6ArvVsW0GvWLlS9tItiaZkbDhX67Hi2vk=
-----END CERTIFICATE-----
