Certificate:
    Data:
        Version: 3 (0x2)
        Serial Number:
            48:45:01:97:68:3b:df:6b:54:f1:f0:be:c0:cd:6b:42:bd:6d:4d:3a
        Signature Algorithm: sha256WithRSAEncryption
        Issuer: C=IN, L=PU, O=ORG, CN=Root CA
        Validity
            Not Before: Apr 14 09:03:20 2022 GMT
            Not After : Apr  9 09:03:20 2042 GMT
        Subject: C=IN, O=ORG, CN=server
        Subject Public Key Info:
            Public Key Algorithm: rsaEncryption
                RSA Public-Key: (2048 bit)
                Modulus:
                    00:a5:b1:2a:43:1c:33:19:c1:ac:04:29:12:65:22:
                    8a:1e:18:d7:e7:db:8d:c9:86:02:09:12:b0:8d:fc:
                    ea:8b:21:83:0a:16:92:26:d0:c9:55:29:5b:2b:01:
                    79:9f:09:58:8a:82:13:22:bf:84:8a:54:7f:49:eb:
                    56:d4:69:62:d5:64:bf:2c:63:4b:7c:7b:7c:63:15:
                    86:8f:26:9f:ae:6b:3c:df:0a:21:16:57:43:1a:04:
                    8f:47:62:cd:7f:fd:a3:87:b4:c1:78:2e:ef:06:cf:
                    2e:d2:e3:04:08:66:4a:67:5a:1e:c3:e8:ae:c2:22:
                    e8:df:5c:8a:09:01:36:ef:d2:35:38:d5:0f:19:0b:
                    a8:d3:eb:66:50:8c:f9:ee:c0:2c:fa:b8:ed:c3:9a:
                    02:54:0f:fd:06:41:31:75:ee:d6:14:5b:1f:45:38:
                    9e:16:84:a8:90:88:1e:2a:67:12:61:1c:d4:7b:e2:
                    50:52:1f:2d:54:a0:7e:5a:62:fb:20:bf:0e:93:3c:
                    54:75:bf:62:ad:ee:13:5d:7a:d7:ae:78:bd:35:43:
                    35:cc:96:b1:49:a1:bf:9c:3a:b1:c8:7b:fe:79:cc:
                    a5:eb:84:a4:76:63:39:4c:e0:bd:74:21:70:83:da:
                    94:de:e3:40:34:20:3e:84:a4:9c:7a:5a:9e:8d:81:
                    4c:0f
                Exponent: 65537 (0x10001)
        X509v3 extensions:
            X509v3 Basic Constraints: critical
                CA:FALSE
            X509v3 Subject Key Identifier:
                19:2E:0B:5C:FF:D6:29:52:7E:A0:18:DE:6C:25:54:85:8F:7C:28:30
            X509v3 Authority Key Identifier:
                keyid:29:7C:BF:2A:8F:34:DB:BD:12:73:84:15:1E:93:BD:BB:DD:FD:C8:AF

            X509v3 Subject Alternative Name: critical
                DNS:rsa2048.server.w1.fi
            X509v3 Extended Key Usage: critical
                TLS Web Server Authentication
            X509v3 Key Usage:
                Digital Signature, Key Encipherment
    Signature Algorithm: sha256WithRSAEncryption
         43:65:ec:7b:e7:e6:7e:8d:02:4b:b3:e0:70:82:05:07:72:6e:
         8d:e9:b4:fd:d4:e6:72:38:ff:59:e8:ac:82:61:12:dd:e7:b4:
         19:16:fa:b6:24:f6:5e:54:be:40:3e:11:91:62:37:cc:4d:2a:
         d9:b2:d1:c6:72:f5:aa:95:32:9f:bf:f0:93:85:11:d1:fd:e6:
         d0:85:1f:78:cd:ad:17:c0:dd:b7:79:e3:43:ee:2f:e1:84:7d:
         26:59:68:05:b9:92:3d:4d:94:ce:eb:66:99:29:d5:e8:7e:2f:
         83:6b:b5:3d:ae:e9:46:44:08:0e:08:14:55:d8:ef:7a:87:9f:
         22:54:4a:26:42:5f:33:65:06:d4:c9:d8:e5:43:47:f7:bb:b3:
         7a:f4:61:74:35:e7:39:5a:5b:da:c3:4b:38:ea:9b:7f:0d:e3:
         31:c7:8a:a8:cc:43:18:23:f7:0d:c8:6f:40:54:3c:ea:7b:14:
         bf:e6:2e:c1:c2:77:2c:6b:1a:76:76:1f:09:da:36:60:b0:7c:
         10:9a:89:38:d4:6b:b0:86:84:b3:80:f5:d6:ab:49:87:aa:2b:
         3e:5e:07:c6:35:8d:b6:85:5d:09:e4:84:7e:55:c4:42:88:61:
         e8:fa:32:f1:fa:20:3e:db:5c:9e:84:df:f1:f7:e3:66:02:a6:
         cd:57:06:e0
-----BEGIN CERTIFICATE-----
MIIDjzCCAnegAwIBAgIUSEUBl2g732tU8fC+wM1rQr1tTTowDQYJKoZIhvcNAQEL
BQAwOjELMAkGA1UEBhMCSU4xCzAJBgNVBAcMAlBVMQwwCgYDVQQKDANPUkcxEDAO
BgNVBAMMB1Jvb3QgQ0EwHhcNMjIwNDE0MDkwMzIwWhcNNDIwNDA5MDkwMzIwWjAs
MQswCQYDVQQGEwJJTjEMMAoGA1UECgwDT1JHMQ8wDQYDVQQDDAZzZXJ2ZXIwggEi
MA0GCSqGSIb3DQEBAQUAA4IBDwAwggEKAoIBAQClsSpDHDMZwawEKRJlIooeGNfn
243JhgIJErCN/OqLIYMKFpIm0MlVKVsrAXmfCViKghMiv4SKVH9J61bUaWLVZL8s
Y0t8e3xjFYaPJp+uazzfCiEWV0MaBI9HYs1//aOHtMF4Lu8Gzy7S4wQIZkpnWh7D
6K7CIujfXIoJATbv0jU41Q8ZC6jT62ZQjPnuwCz6uO3DmgJUD/0GQTF17tYUWx9F
OJ4WhKiQiB4qZxJhHNR74lBSHy1UoH5aYvsgvw6TPFR1v2Kt7hNdeteueL01QzXM
lrFJob+cOrHIe/55zKXrhKR2YzlM4L10IXCD2pTe40A0ID6EpJx6Wp6NgUwPAgMB
AAGjgZowgZcwDAYDVR0TAQH/BAIwADAdBgNVHQ4EFgQUGS4LXP/WKVJ+oBjebCVU
hY98KDAwHwYDVR0jBBgwFoAUKXy/Ko80270Sc4QVHpO9u939yK8wIgYDVR0RAQH/
BBgwFoIUcnNhMjA0OC5zZXJ2ZXIudzEuZmkwFgYDVR0lAQH/BAwwCgYIKwYBBQUH
AwEwCwYDVR0PBAQDAgWgMA0GCSqGSIb3DQEBCwUAA4IBAQBDZex75+Z+jQJLs+Bw
ggUHcm6N6bT91OZyOP9Z6KyCYRLd57QZFvq2JPZeVL5APhGRYjfMTSrZstHGcvWq
lTKfv/CThRHR/ebQhR94za0XwN23eeND7i/hhH0mWWgFuZI9TZTO62aZKdXofi+D
a7U9rulGRAgOCBRV2O96h58iVEomQl8zZQbUydjlQ0f3u7N69GF0Nec5Wlvaw0s4
6pt/DeMxx4qozEMYI/cNyG9AVDzqexS/5i7Bwncsaxp2dh8J2jZgsHwQmok41Guw
hoSzgPXWq0mHqis+XgfGNY22hV0J5IR+VcRCiGHo+jLx+iA+21yehN/x9+NmAqbN
Vwbg
-----END CERTIFICATE-----
